; Function Attrs: mustprogress nounwind uwtable
define hidden void @_ZN5ceres8internal19TripletSparseMatrixD2Ev(ptr noundef nonnull align 8 dereferenceable(48) %0) unnamed_addr #1 align 2 {
  %2 = getelementptr inbounds i8, ptr %0, i64 40
  %3 = load ptr, ptr %2, align 8
  %.not.i = icmp eq ptr %3, null
  br i1 %.not.i, label %_ZNSt10unique_ptrIA_dSt14default_deleteIS0_EED2Ev.exit, label %_ZNKSt14default_deleteIA_dEclIdEENSt9enable_ifIXsr14is_convertibleIPA_T_PS0_EE5valueEvE4typeEPS4_.exit.i

_ZNKSt14default_deleteIA_dEclIdEENSt9enable_ifIXsr14is_convertibleIPA_T_PS0_EE5valueEvE4typeEPS4_.exit.i: ; preds = %1
  tail call void @_ZdaPv(ptr noundef nonnull %3) #25
  br label %_ZNSt10unique_ptrIA_dSt14default_deleteIS0_EED2Ev.exit

_ZNSt10unique_ptrIA_dSt14default_deleteIS0_EED2Ev.exit: ; preds = %1, %_ZNKSt14default_deleteIA_dEclIdEENSt9enable_ifIXsr14is_convertibleIPA_T_PS0_EE5valueEvE4typeEPS4_.exit.i
  store ptr null, ptr %2, align 8
  %4 = getelementptr inbounds i8, ptr %0, i64 32
  %5 = load ptr, ptr %4, align 8
  %.not.i1 = icmp eq ptr %5, null
  br i1 %.not.i1, label %_ZNSt10unique_ptrIA_iSt14default_deleteIS0_EED2Ev.exit, label %_ZNKSt14default_deleteIA_iEclIiEENSt9enable_ifIXsr14is_convertibleIPA_T_PS0_EE5valueEvE4typeEPS4_.exit.i

_ZNKSt14default_deleteIA_iEclIiEENSt9enable_ifIXsr14is_convertibleIPA_T_PS0_EE5valueEvE4typeEPS4_.exit.i: ; preds = %_ZNSt10unique_ptrIA_dSt14default_deleteIS0_EED2Ev.exit
  tail call void @_ZdaPv(ptr noundef nonnull %5) #25
  br label %_ZNSt10unique_ptrIA_iSt14default_deleteIS0_EED2Ev.exit

_ZNSt10unique_ptrIA_iSt14default_deleteIS0_EED2Ev.exit: ; preds = %_ZNSt10unique_ptrIA_dSt14default_deleteIS0_EED2Ev.exit, %_ZNKSt14default_deleteIA_iEclIiEENSt9enable_ifIXsr14is_convertibleIPA_T_PS0_EE5valueEvE4typeEPS4_.exit.i
  store ptr null, ptr %4, align 8
  %6 = getelementptr inbounds i8, ptr %0, i64 24
  %7 = load ptr, ptr %6, align 8
  %.not.i2 = icmp eq ptr %7, null
  br i1 %.not.i2, label %_ZNSt10unique_ptrIA_iSt14default_deleteIS0_EED2Ev.exit4, label %_ZNKSt14default_deleteIA_iEclIiEENSt9enable_ifIXsr14is_convertibleIPA_T_PS0_EE5valueEvE4typeEPS4_.exit.i3

_ZNKSt14default_deleteIA_iEclIiEENSt9enable_ifIXsr14is_convertibleIPA_T_PS0_EE5valueEvE4typeEPS4_.exit.i3: ; preds = %_ZNSt10unique_ptrIA_iSt14default_deleteIS0_EED2Ev.exit
  tail call void @_ZdaPv(ptr noundef nonnull %7) #25
  br label %_ZNSt10unique_ptrIA_iSt14default_deleteIS0_EED2Ev.exit4

_ZNSt10unique_ptrIA_iSt14default_deleteIS0_EED2Ev.exit4: ; preds = %_ZNSt10unique_ptrIA_iSt14default_deleteIS0_EED2Ev.exit, %_ZNKSt14default_deleteIA_iEclIiEENSt9enable_ifIXsr14is_convertibleIPA_T_PS0_EE5valueEvE4typeEPS4_.exit.i3
  store ptr null, ptr %6, align 8
  tail call void @_ZN5ceres8internal12SparseMatrixD2Ev(ptr noundef nonnull align 8 dereferenceable(8) %0) #26
  ret void
}